target datalayout = "e-m:e-p270:32:32-p271:32:32-p272:64:64-i64:64-i128:128-f80:128-n8:16:32:64-S128"
target triple = "x86_64-pc-linux-gnu"

@__const.get_official_database_lists.hardcodedStandardDatabaseList = private unnamed_addr constant [3 x ptr] [ptr @.str.21, ptr @.str.22, ptr @.str.23], align 16
@__const.get_official_database_lists.hardcodedOptionalDatabaseList = private unnamed_addr constant [3 x ptr] [ptr @.str.24, ptr @.str.25, ptr @.str.26], align 16
@.str.27 = private unnamed_addr constant [49 x i8] c"get_official_database_lists: Invalid arguments.\0A\00", align 1
@.str.28 = private unnamed_addr constant [49 x i8] c"Failed to add %s to list of standard databases.\0A\00", align 1
@.str.29 = private unnamed_addr constant [49 x i8] c"Failed to add %s to list of optional databases.\0A\00", align 1
@.str.30 = private unnamed_addr constant [62 x i8] c"Collected lists of official standard and optional databases.\0A\00", align 1
@.str.107 = private unnamed_addr constant [37 x i8] c"string_list_add: Invalid arguments.\0A\00", align 1
@.str.108 = private unnamed_addr constant [78 x i8] c"string_list_add: Failed to allocate memory for optional database list entry.\0A\00", align 1
@.str.109 = private unnamed_addr constant [77 x i8] c"string_list_add: Failed to allocate memory for optional database list item.\0A\00", align 1

; Function Attrs: nounwind uwtable
define internal void @free_string_list(ptr noundef %0, i32 noundef %1) #0 {
  %3 = alloca ptr, align 8
  %4 = alloca i32, align 4
  %5 = alloca i32, align 4
  store ptr %0, ptr %3, align 8
  store i32 %1, ptr %4, align 4
  %6 = load ptr, ptr %3, align 8
  %7 = icmp ne ptr null, %6
  br i1 %7, label %8, label %36

8:                                                ; preds = %2
  store i32 0, ptr %5, align 4
  br label %9

9:                                                ; preds = %31, %8
  %10 = load i32, ptr %5, align 4
  %11 = load i32, ptr %4, align 4
  %12 = icmp ult i32 %10, %11
  br i1 %12, label %13, label %34

13:                                               ; preds = %9
  %14 = load ptr, ptr %3, align 8
  %15 = load i32, ptr %5, align 4
  %16 = zext i32 %15 to i64
  %17 = getelementptr inbounds ptr, ptr %14, i64 %16
  %18 = load ptr, ptr %17, align 8
  %19 = icmp ne ptr %18, null
  br i1 %19, label %20, label %30

20:                                               ; preds = %13
  %21 = load ptr, ptr %3, align 8
  %22 = load i32, ptr %5, align 4
  %23 = zext i32 %22 to i64
  %24 = getelementptr inbounds ptr, ptr %21, i64 %23
  %25 = load ptr, ptr %24, align 8
  call void @free(ptr noundef %25) #10
  %26 = load ptr, ptr %3, align 8
  %27 = load i32, ptr %5, align 4
  %28 = zext i32 %27 to i64
  %29 = getelementptr inbounds ptr, ptr %26, i64 %28
  store ptr null, ptr %29, align 8
  br label %30

30:                                               ; preds = %20, %13
  br label %31

31:                                               ; preds = %30
  %32 = load i32, ptr %5, align 4
  %33 = add i32 %32, 1
  store i32 %33, ptr %5, align 4
  br label %9

34:                                               ; preds = %9
  %35 = load ptr, ptr %3, align 8
  call void @free(ptr noundef %35) #10
  br label %36

36:                                               ; preds = %34, %2
  ret void
}

; Function Attrs: nounwind uwtable
define internal i32 @string_list_add(ptr noundef %0, ptr noundef %1, ptr noundef %2) #0 {
  %4 = alloca ptr, align 8
  %5 = alloca ptr, align 8
  %6 = alloca ptr, align 8
  %7 = alloca i32, align 4
  %8 = alloca ptr, align 8
  %9 = alloca i32, align 4
  store ptr %0, ptr %4, align 8
  store ptr %1, ptr %5, align 8
  store ptr %2, ptr %6, align 8
  store i32 16, ptr %7, align 4
  store ptr null, ptr %8, align 8
  store i32 0, ptr %9, align 4
  %10 = load ptr, ptr %4, align 8
  %11 = icmp eq ptr null, %10
  br i1 %11, label %18, label %12

12:                                               ; preds = %3
  %13 = load ptr, ptr %5, align 8
  %14 = icmp eq ptr null, %13
  br i1 %14, label %18, label %15

15:                                               ; preds = %12
  %16 = load ptr, ptr %6, align 8
  %17 = icmp eq ptr null, %16
  br i1 %17, label %18, label %19

18:                                               ; preds = %15, %12, %3
  call void (i32, ptr, ...) @mprintf(i32 noundef 5, ptr noundef @.str.107)
  br label %53

19:                                               ; preds = %15
  %20 = load ptr, ptr %6, align 8
  %21 = load i32, ptr %20, align 4
  %22 = add i32 %21, 1
  store i32 %22, ptr %9, align 4
  %23 = load ptr, ptr %5, align 8
  %24 = load ptr, ptr %23, align 8
  %25 = load i32, ptr %9, align 4
  %26 = zext i32 %25 to i64
  %27 = mul i64 %26, 8
  %28 = call ptr @cli_safer_realloc(ptr noundef %24, i64 noundef %27)
  store ptr %28, ptr %8, align 8
  %29 = load ptr, ptr %8, align 8
  %30 = icmp eq ptr %29, null
  br i1 %30, label %31, label %32

31:                                               ; preds = %19
  call void (i32, ptr, ...) @mprintf(i32 noundef 5, ptr noundef @.str.108)
  store i32 15, ptr %7, align 4
  br label %53

32:                                               ; preds = %19
  %33 = load ptr, ptr %8, align 8
  %34 = load ptr, ptr %5, align 8
  store ptr %33, ptr %34, align 8
  %35 = load ptr, ptr %4, align 8
  %36 = call ptr @cli_safer_strdup(ptr noundef %35)
  %37 = load ptr, ptr %8, align 8
  %38 = load i32, ptr %9, align 4
  %39 = sub i32 %38, 1
  %40 = zext i32 %39 to i64
  %41 = getelementptr inbounds ptr, ptr %37, i64 %40
  store ptr %36, ptr %41, align 8
  %42 = load ptr, ptr %8, align 8
  %43 = load i32, ptr %9, align 4
  %44 = sub i32 %43, 1
  %45 = zext i32 %44 to i64
  %46 = getelementptr inbounds ptr, ptr %42, i64 %45
  %47 = load ptr, ptr %46, align 8
  %48 = icmp eq ptr %47, null
  br i1 %48, label %49, label %50

49:                                               ; preds = %32
  call void (i32, ptr, ...) @mprintf(i32 noundef 5, ptr noundef @.str.109)
  store i32 15, ptr %7, align 4
  br label %53

50:                                               ; preds = %32
  %51 = load i32, ptr %9, align 4
  %52 = load ptr, ptr %6, align 8
  store i32 %51, ptr %52, align 4
  store i32 0, ptr %7, align 4
  br label %53

53:                                               ; preds = %50, %49, %31, %18
  %54 = load i32, ptr %7, align 4
  ret i32 %54
}

; Function Attrs: nounwind uwtable
define dso_local i32 @get_official_database_lists(ptr noundef %0, ptr noundef %1, ptr noundef %2, ptr noundef %3) #0 {
  %5 = alloca ptr, align 8
  %6 = alloca ptr, align 8
  %7 = alloca ptr, align 8
  %8 = alloca ptr, align 8
  %9 = alloca i32, align 4
  %10 = alloca i32, align 4
  %11 = alloca i32, align 4
  %12 = alloca [3 x ptr], align 16
  %13 = alloca [3 x ptr], align 16
  store ptr %0, ptr %5, align 8
  store ptr %1, ptr %6, align 8
  store ptr %2, ptr %7, align 8
  store ptr %3, ptr %8, align 8
  store i32 16, ptr %10, align 4
  call void @llvm.memcpy.p0.p0.i64(ptr align 16 %12, ptr align 16 @__const.get_official_database_lists.hardcodedStandardDatabaseList, i64 24, i1 false)
  call void @llvm.memcpy.p0.p0.i64(ptr align 16 %13, ptr align 16 @__const.get_official_database_lists.hardcodedOptionalDatabaseList, i64 24, i1 false)
  %14 = load ptr, ptr %5, align 8
  %15 = icmp eq ptr null, %14
  br i1 %15, label %25, label %16

16:                                               ; preds = %4
  %17 = load ptr, ptr %6, align 8
  %18 = icmp eq ptr null, %17
  br i1 %18, label %25, label %19

19:                                               ; preds = %16
  %20 = load ptr, ptr %7, align 8
  %21 = icmp eq ptr null, %20
  br i1 %21, label %25, label %22

22:                                               ; preds = %19
  %23 = load ptr, ptr %8, align 8
  %24 = icmp eq ptr null, %23
  br i1 %24, label %25, label %26

25:                                               ; preds = %22, %19, %16, %4
  call void (i32, ptr, ...) @mprintf(i32 noundef 5, ptr noundef @.str.27)
  br label %82

26:                                               ; preds = %22
  %27 = load ptr, ptr %5, align 8
  store ptr null, ptr %27, align 8
  %28 = load ptr, ptr %6, align 8
  store i32 0, ptr %28, align 4
  %29 = load ptr, ptr %7, align 8
  store ptr null, ptr %29, align 8
  %30 = load ptr, ptr %8, align 8
  store i32 0, ptr %30, align 4
  store i32 0, ptr %11, align 4
  br label %31

31:                                               ; preds = %52, %26
  %32 = load i32, ptr %11, align 4
  %33 = zext i32 %32 to i64
  %34 = icmp ult i64 %33, 3
  br i1 %34, label %35, label %55

35:                                               ; preds = %31
  %36 = load i32, ptr %11, align 4
  %37 = zext i32 %36 to i64
  %38 = getelementptr inbounds [3 x ptr], ptr %12, i64 0, i64 %37
  %39 = load ptr, ptr %38, align 8
  %40 = load ptr, ptr %5, align 8
  %41 = load ptr, ptr %6, align 8
  %42 = call i32 @string_list_add(ptr noundef %39, ptr noundef %40, ptr noundef %41)
  store i32 %42, ptr %9, align 4
  %43 = icmp ne i32 0, %42
  br i1 %43, label %44, label %51

44:                                               ; preds = %35
  %45 = load i32, ptr %11, align 4
  %46 = zext i32 %45 to i64
  %47 = getelementptr inbounds [3 x ptr], ptr %12, i64 0, i64 %46
  %48 = load ptr, ptr %47, align 8
  %49 = call i32 (i32, ptr, ...) @logg(i32 noundef 5, ptr noundef @.str.28, ptr noundef %48)
  %50 = load i32, ptr %9, align 4
  store i32 %50, ptr %10, align 4
  br label %82

51:                                               ; preds = %35
  br label %52

52:                                               ; preds = %51
  %53 = load i32, ptr %11, align 4
  %54 = add i32 %53, 1
  store i32 %54, ptr %11, align 4
  br label %31

55:                                               ; preds = %31
  store i32 0, ptr %11, align 4
  br label %56

56:                                               ; preds = %77, %55
  %57 = load i32, ptr %11, align 4
  %58 = zext i32 %57 to i64
  %59 = icmp ult i64 %58, 3
  br i1 %59, label %60, label %80

60:                                               ; preds = %56
  %61 = load i32, ptr %11, align 4
  %62 = zext i32 %61 to i64
  %63 = getelementptr inbounds [3 x ptr], ptr %13, i64 0, i64 %62
  %64 = load ptr, ptr %63, align 8
  %65 = load ptr, ptr %7, align 8
  %66 = load ptr, ptr %8, align 8
  %67 = call i32 @string_list_add(ptr noundef %64, ptr noundef %65, ptr noundef %66)
  store i32 %67, ptr %9, align 4
  %68 = icmp ne i32 0, %67
  br i1 %68, label %69, label %76

69:                                               ; preds = %60
  %70 = load i32, ptr %11, align 4
  %71 = zext i32 %70 to i64
  %72 = getelementptr inbounds [3 x ptr], ptr %13, i64 0, i64 %71
  %73 = load ptr, ptr %72, align 8
  %74 = call i32 (i32, ptr, ...) @logg(i32 noundef 5, ptr noundef @.str.29, ptr noundef %73)
  %75 = load i32, ptr %9, align 4
  store i32 %75, ptr %10, align 4
  br label %82

76:                                               ; preds = %60
  br label %77

77:                                               ; preds = %76
  %78 = load i32, ptr %11, align 4
  %79 = add i32 %78, 1
  store i32 %79, ptr %11, align 4
  br label %56

80:                                               ; preds = %56
  %81 = call i32 (i32, ptr, ...) @logg(i32 noundef 2, ptr noundef @.str.30)
  store i32 0, ptr %10, align 4
  br label %82

82:                                               ; preds = %80, %69, %44, %25
  %83 = load i32, ptr %10, align 4
  %84 = icmp ne i32 0, %83
  br i1 %84, label %85, label %120

85:                                               ; preds = %82
  %86 = load ptr, ptr %5, align 8
  %87 = icmp ne ptr null, %86
  br i1 %87, label %88, label %102

88:                                               ; preds = %85
  %89 = load ptr, ptr %5, align 8
  %90 = load ptr, ptr %89, align 8
  %91 = icmp ne ptr %90, null
  br i1 %91, label %92, label %102

92:                                               ; preds = %88
  %93 = load ptr, ptr %6, align 8
  %94 = icmp ne ptr %93, null
  br i1 %94, label %95, label %102

95:                                               ; preds = %92
  %96 = load ptr, ptr %5, align 8
  %97 = load ptr, ptr %96, align 8
  %98 = load ptr, ptr %6, align 8
  %99 = load i32, ptr %98, align 4
  call void @free_string_list(ptr noundef %97, i32 noundef %99)
  %100 = load ptr, ptr %5, align 8
  store ptr null, ptr %100, align 8
  %101 = load ptr, ptr %6, align 8
  store i32 0, ptr %101, align 4
  br label %102

102:                                              ; preds = %95, %92, %88, %85
  %103 = load ptr, ptr %7, align 8
  %104 = icmp ne ptr null, %103
  br i1 %104, label %105, label %119

105:                                              ; preds = %102
  %106 = load ptr, ptr %7, align 8
  %107 = load ptr, ptr %106, align 8
  %108 = icmp ne ptr %107, null
  br i1 %108, label %109, label %119

109:                                              ; preds = %105
  %110 = load ptr, ptr %8, align 8
  %111 = icmp ne ptr %110, null
  br i1 %111, label %112, label %119

112:                                              ; preds = %109
  %113 = load ptr, ptr %7, align 8
  %114 = load ptr, ptr %113, align 8
  %115 = load ptr, ptr %8, align 8
  %116 = load i32, ptr %115, align 4
  call void @free_string_list(ptr noundef %114, i32 noundef %116)
  %117 = load ptr, ptr %7, align 8
  store ptr null, ptr %117, align 8
  %118 = load ptr, ptr %8, align 8
  store i32 0, ptr %118, align 4
  br label %119

119:                                              ; preds = %112, %109, %105, %102
  br label %120

120:                                              ; preds = %119, %82
  %121 = load i32, ptr %10, align 4
  ret i32 %121
}