; Function Attrs: nounwind uwtable
define dso_local noundef i32 @get_official_database_lists(ptr noundef %0, ptr noundef %1, ptr noundef %2, ptr noundef %3) local_unnamed_addr #0 {
  %5 = icmp eq ptr %0, null
  %6 = icmp eq ptr %1, null
  %7 = icmp eq ptr %2, null
  %8 = icmp eq ptr %3, null
  %9 = or i1 %6, %8
  %10 = or i1 %5, %9
  %or.cond5 = or i1 %7, %10
  br i1 %or.cond5, label %11, label %12

11:                                               ; preds = %4
  tail call void (i32, ptr, ...) @mprintf(i32 noundef 5, ptr noundef nonnull @.str.27) #17
  br label %49

12:                                               ; preds = %4
  store ptr null, ptr %0, align 8
  store i32 0, ptr %1, align 4
  store ptr null, ptr %2, align 8
  store i32 0, ptr %3, align 4
  %.pre = load i32, ptr %1, align 4
  br label %13

13:                                               ; preds = %12, %29
  %14 = phi i32 [ %.pre, %12 ], [ %17, %29 ]
  %indvars.iv = phi i64 [ 0, %12 ], [ %indvars.iv.next, %29 ]
  %15 = getelementptr inbounds [3 x ptr], ptr @__const.get_official_database_lists.hardcodedStandardDatabaseList, i64 0, i64 %indvars.iv
  %16 = load ptr, ptr %15, align 8
  %17 = add i32 %14, 1
  %18 = load ptr, ptr %0, align 8
  %19 = zext i32 %17 to i64
  %20 = shl nuw nsw i64 %19, 3
  %21 = tail call ptr @cli_safer_realloc(ptr noundef %18, i64 noundef %20) #17
  %22 = icmp eq ptr %21, null
  br i1 %22, label %.thread91, label %23

23:                                               ; preds = %13
  store ptr %21, ptr %0, align 8
  %24 = tail call ptr @cli_safer_strdup(ptr noundef nonnull %16) #17
  %25 = zext i32 %14 to i64
  %26 = getelementptr inbounds ptr, ptr %21, i64 %25
  store ptr %24, ptr %26, align 8
  %27 = icmp eq ptr %24, null
  br i1 %27, label %.thread91, label %29

.thread91:                                        ; preds = %23, %13
  %.str.109.sink = phi ptr [ @.str.108, %13 ], [ @.str.109, %23 ]
  tail call void (i32, ptr, ...) @mprintf(i32 noundef 5, ptr noundef nonnull %.str.109.sink) #17
  %28 = tail call i32 (i32, ptr, ...) @logg(i32 noundef 5, ptr noundef nonnull @.str.28, ptr noundef %16) #17
  br label %50

29:                                               ; preds = %23
  store i32 %17, ptr %1, align 4
  %indvars.iv.next = add nuw nsw i64 %indvars.iv, 1
  %exitcond.not = icmp eq i64 %indvars.iv.next, 3
  br i1 %exitcond.not, label %.preheader.preheader, label %13

.preheader.preheader:                             ; preds = %29
  %.pre110 = load i32, ptr %3, align 4
  br label %.preheader

.preheader:                                       ; preds = %.preheader.preheader, %46
  %30 = phi i32 [ %.pre110, %.preheader.preheader ], [ %33, %46 ]
  %indvars.iv106 = phi i64 [ 0, %.preheader.preheader ], [ %indvars.iv.next107, %46 ]
  %31 = getelementptr inbounds [3 x ptr], ptr @__const.get_official_database_lists.hardcodedOptionalDatabaseList, i64 0, i64 %indvars.iv106
  %32 = load ptr, ptr %31, align 8
  %33 = add i32 %30, 1
  %34 = load ptr, ptr %2, align 8
  %35 = zext i32 %33 to i64
  %36 = shl nuw nsw i64 %35, 3
  %37 = tail call ptr @cli_safer_realloc(ptr noundef %34, i64 noundef %36) #17
  %38 = icmp eq ptr %37, null
  br i1 %38, label %44, label %39

39:                                               ; preds = %.preheader
  store ptr %37, ptr %2, align 8
  %40 = tail call ptr @cli_safer_strdup(ptr noundef nonnull %32) #17
  %41 = zext i32 %30 to i64
  %42 = getelementptr inbounds ptr, ptr %37, i64 %41
  store ptr %40, ptr %42, align 8
  %43 = icmp eq ptr %40, null
  br i1 %43, label %44, label %46

44:                                               ; preds = %39, %.preheader
  %.str.108.sink = phi ptr [ @.str.108, %.preheader ], [ @.str.109, %39 ]
  tail call void (i32, ptr, ...) @mprintf(i32 noundef 5, ptr noundef nonnull %.str.108.sink) #17
  %45 = tail call i32 (i32, ptr, ...) @logg(i32 noundef 5, ptr noundef nonnull @.str.29, ptr noundef %32) #17
  br label %49

46:                                               ; preds = %39
  store i32 %33, ptr %3, align 4
  %indvars.iv.next107 = add nuw nsw i64 %indvars.iv106, 1
  %exitcond109.not = icmp eq i64 %indvars.iv.next107, 3
  br i1 %exitcond109.not, label %47, label %.preheader

47:                                               ; preds = %46
  %48 = tail call i32 (i32, ptr, ...) @logg(i32 noundef 2, ptr noundef nonnull @.str.30) #17
  br label %69

49:                                               ; preds = %11, %44
  %.046.ph = phi i32 [ 15, %44 ], [ 16, %11 ]
  br i1 %5, label %59, label %50

50:                                               ; preds = %.thread91, %49
  %.046.ph93 = phi i32 [ 15, %.thread91 ], [ %.046.ph, %49 ]
  %51 = load ptr, ptr %0, align 8
  %52 = icmp ne ptr %51, null
  %53 = icmp ne ptr %1, null
  %or.cond7 = and i1 %53, %52
  br i1 %or.cond7, label %.preheader.i, label %59

.preheader.i:                                     ; preds = %50
  %54 = load i32, ptr %1, align 4
  %.not14.i = icmp eq i32 %54, 0
  br i1 %.not14.i, label %free_string_list.exit, label %.lr.ph.preheader.i

.lr.ph.preheader.i:                               ; preds = %.preheader.i
  %wide.trip.count.i = zext i32 %54 to i64
  br label %.lr.ph.i

.lr.ph.i:                                         ; preds = %58, %.lr.ph.preheader.i
  %indvars.iv.i = phi i64 [ 0, %.lr.ph.preheader.i ], [ %indvars.iv.next.i, %58 ]
  %55 = getelementptr inbounds ptr, ptr %51, i64 %indvars.iv.i
  %56 = load ptr, ptr %55, align 8
  %.not12.i = icmp eq ptr %56, null
  br i1 %.not12.i, label %58, label %57

57:                                               ; preds = %.lr.ph.i
  tail call void @free(ptr noundef nonnull %56) #17
  store ptr null, ptr %55, align 8
  br label %58

58:                                               ; preds = %57, %.lr.ph.i
  %indvars.iv.next.i = add nuw nsw i64 %indvars.iv.i, 1
  %exitcond.not.i = icmp eq i64 %indvars.iv.next.i, %wide.trip.count.i
  br i1 %exitcond.not.i, label %free_string_list.exit, label %.lr.ph.i

free_string_list.exit:                            ; preds = %58, %.preheader.i
  tail call void @free(ptr noundef nonnull %51) #17
  store ptr null, ptr %0, align 8
  store i32 0, ptr %1, align 4
  br label %59

59:                                               ; preds = %free_string_list.exit, %50, %49
  %.046.ph94 = phi i32 [ %.046.ph93, %free_string_list.exit ], [ %.046.ph93, %50 ], [ %.046.ph, %49 ]
  br i1 %7, label %69, label %60

60:                                               ; preds = %59
  %61 = load ptr, ptr %2, align 8
  %62 = icmp ne ptr %61, null
  %63 = icmp ne ptr %3, null
  %or.cond9 = and i1 %63, %62
  br i1 %or.cond9, label %.preheader.i70, label %69

.preheader.i70:                                   ; preds = %60
  %64 = load i32, ptr %3, align 4
  %.not14.i71 = icmp eq i32 %64, 0
  br i1 %.not14.i71, label %free_string_list.exit80, label %.lr.ph.preheader.i72

.lr.ph.preheader.i72:                             ; preds = %.preheader.i70
  %wide.trip.count.i73 = zext i32 %64 to i64
  br label %.lr.ph.i74

.lr.ph.i74:                                       ; preds = %68, %.lr.ph.preheader.i72
  %indvars.iv.i75 = phi i64 [ 0, %.lr.ph.preheader.i72 ], [ %indvars.iv.next.i77, %68 ]
  %65 = getelementptr inbounds ptr, ptr %61, i64 %indvars.iv.i75
  %66 = load ptr, ptr %65, align 8
  %.not12.i76 = icmp eq ptr %66, null
  br i1 %.not12.i76, label %68, label %67

67:                                               ; preds = %.lr.ph.i74
  tail call void @free(ptr noundef nonnull %66) #17
  store ptr null, ptr %65, align 8
  br label %68

68:                                               ; preds = %67, %.lr.ph.i74
  %indvars.iv.next.i77 = add nuw nsw i64 %indvars.iv.i75, 1
  %exitcond.not.i78 = icmp eq i64 %indvars.iv.next.i77, %wide.trip.count.i73
  br i1 %exitcond.not.i78, label %free_string_list.exit80, label %.lr.ph.i74

free_string_list.exit80:                          ; preds = %68, %.preheader.i70
  tail call void @free(ptr noundef nonnull %61) #17
  store ptr null, ptr %2, align 8
  store i32 0, ptr %3, align 4
  br label %69

69:                                               ; preds = %47, %59, %60, %free_string_list.exit80
  %.04690 = phi i32 [ %.046.ph94, %59 ], [ %.046.ph94, %60 ], [ %.046.ph94, %free_string_list.exit80 ], [ 0, %47 ]
  ret i32 %.04690
}